target datalayout = "e-m:e-p270:32:32-p271:32:32-p272:64:64-i64:64-i128:128-f80:128-n8:16:32:64-S128"
target triple = "x86_64-pc-linux-gnu"

%"struct.std::atomic" = type { %"struct.std::__atomic_base" }
%"struct.std::__atomic_base" = type { ptr }
%"class.pxrInternal_v0_24__pxrReserved__::TfToken" = type { %"class.pxrInternal_v0_24__pxrReserved__::TfPointerAndBits" }
%"class.pxrInternal_v0_24__pxrReserved__::TfPointerAndBits" = type { ptr }

@_ZN32pxrInternal_v0_24__pxrReserved__11TfSingletonINS_16Tf_TokenRegistryEE9_instanceE = weak_odr global %"struct.std::atomic" zeroinitializer, comdat, align 8

; Function Attrs: mustprogress nounwind uwtable
define linkonce_odr noundef i32 @_ZStanSt12memory_orderSt23__memory_order_modifier(i32 noundef %0, i32 noundef %1) #1 comdat {
  %3 = alloca i32, align 4
  %4 = alloca i32, align 4
  store i32 %0, ptr %3, align 4
  store i32 %1, ptr %4, align 4
  %5 = load i32, ptr %3, align 4
  %6 = load i32, ptr %4, align 4
  %7 = and i32 %5, %6
  ret i32 %7
}

; Function Attrs: mustprogress nounwind uwtable
define linkonce_odr noundef ptr @_ZNKSt6atomicIPN32pxrInternal_v0_24__pxrReserved__16Tf_TokenRegistryEE4loadESt12memory_order(ptr noundef nonnull align 8 dereferenceable(8) %0, i32 noundef %1) #1 comdat align 2 {
  %3 = alloca ptr, align 8
  %4 = alloca i32, align 4
  %5 = alloca i32, align 4
  %6 = alloca ptr, align 8
  %7 = alloca ptr, align 8
  %8 = alloca i32, align 4
  store ptr %0, ptr %7, align 8
  store i32 %1, ptr %8, align 4
  %9 = load ptr, ptr %7, align 8
  %10 = getelementptr inbounds nuw %"struct.std::atomic", ptr %9, i32 0, i32 0
  %11 = load i32, ptr %8, align 4
  store ptr %10, ptr %3, align 8
  store i32 %11, ptr %4, align 4
  %12 = load ptr, ptr %3, align 8
  %13 = load i32, ptr %4, align 4
  %14 = call noundef i32 @_ZStanSt12memory_orderSt23__memory_order_modifier(i32 noundef %13, i32 noundef 65535)
  store i32 %14, ptr %5, align 4
  %15 = load i32, ptr %4, align 4
  switch i32 %15, label %16 [
    i32 1, label %18
    i32 2, label %18
    i32 5, label %20
  ]

16:                                               ; preds = %2
  %17 = load atomic i64, ptr %12 monotonic, align 8
  store i64 %17, ptr %6, align 8
  br label %22

18:                                               ; preds = %2, %2
  %19 = load atomic i64, ptr %12 acquire, align 8
  store i64 %19, ptr %6, align 8
  br label %22

20:                                               ; preds = %2
  %21 = load atomic i64, ptr %12 seq_cst, align 8
  store i64 %21, ptr %6, align 8
  br label %22

22:                                               ; preds = %20, %18, %16
  %23 = load ptr, ptr %6, align 8
  ret ptr %23
}

; Function Attrs: mustprogress uwtable
define weak_odr noundef nonnull align 64 dereferenceable(8192) ptr @_ZN32pxrInternal_v0_24__pxrReserved__11TfSingletonINS_16Tf_TokenRegistryEE11GetInstanceEv() #0 comdat align 2 {
  %1 = alloca ptr, align 8
  %2 = call noundef ptr @_ZNKSt6atomicIPN32pxrInternal_v0_24__pxrReserved__16Tf_TokenRegistryEE4loadESt12memory_order(ptr noundef nonnull align 8 dereferenceable(8) @_ZN32pxrInternal_v0_24__pxrReserved__11TfSingletonINS_16Tf_TokenRegistryEE9_instanceE, i32 noundef 5) #7
  store ptr %2, ptr %1, align 8
  %3 = load ptr, ptr %1, align 8
  %4 = icmp ne ptr %3, null
  br i1 %4, label %7, label %5

5:                                                ; preds = %0
  %6 = call noundef ptr @_ZN32pxrInternal_v0_24__pxrReserved__11TfSingletonINS_16Tf_TokenRegistryEE15_CreateInstanceERSt6atomicIPS1_E(ptr noundef nonnull align 8 dereferenceable(8) @_ZN32pxrInternal_v0_24__pxrReserved__11TfSingletonINS_16Tf_TokenRegistryEE9_instanceE)
  store ptr %6, ptr %1, align 8
  br label %7

7:                                                ; preds = %5, %0
  %8 = load ptr, ptr %1, align 8
  ret ptr %8
}

; Function Attrs: mustprogress uwtable
define linkonce_odr ptr @_ZN32pxrInternal_v0_24__pxrReserved__16Tf_TokenRegistry10_GetPtrStrERKNSt7__cxx1112basic_stringIcSt11char_traitsIcESaIcEEEb(ptr noundef nonnull align 64 dereferenceable(8192) %0, ptr noundef nonnull align 8 dereferenceable(32) %1, i1 noundef zeroext %2) #0 comdat align 2 {
  %4 = alloca %"class.pxrInternal_v0_24__pxrReserved__::TfPointerAndBits", align 8
  %5 = alloca ptr, align 8
  %6 = alloca ptr, align 8
  %7 = alloca i8, align 1
  store ptr %0, ptr %5, align 8
  store ptr %1, ptr %6, align 8
  %8 = zext i1 %2 to i8
  store i8 %8, ptr %7, align 1
  %9 = load ptr, ptr %5, align 8
  %10 = load ptr, ptr %6, align 8
  %11 = load i8, ptr %7, align 1
  %12 = trunc i8 %11 to i1
  %13 = call ptr @_ZN32pxrInternal_v0_24__pxrReserved__16Tf_TokenRegistry11_GetPtrImplIRKNSt7__cxx1112basic_stringIcSt11char_traitsIcESaIcEEEEENS_16TfPointerAndBitsIKNS_7TfToken4_RepEEET_b(ptr noundef nonnull align 64 dereferenceable(8192) %9, ptr noundef nonnull align 8 dereferenceable(32) %10, i1 noundef zeroext %12)
  %14 = getelementptr inbounds nuw %"class.pxrInternal_v0_24__pxrReserved__::TfPointerAndBits", ptr %4, i32 0, i32 0
  store ptr %13, ptr %14, align 8
  %15 = getelementptr inbounds nuw %"class.pxrInternal_v0_24__pxrReserved__::TfPointerAndBits", ptr %4, i32 0, i32 0
  %16 = load ptr, ptr %15, align 8
  ret ptr %16
}

; Function Attrs: mustprogress uwtable
define linkonce_odr noundef nonnull align 64 dereferenceable(8192) ptr @_ZN32pxrInternal_v0_24__pxrReserved__16Tf_TokenRegistry12_GetInstanceEv() #0 comdat align 2 {
  %1 = call noundef nonnull align 64 dereferenceable(8192) ptr @_ZN32pxrInternal_v0_24__pxrReserved__11TfSingletonINS_16Tf_TokenRegistryEE11GetInstanceEv()
  ret ptr %1
}

; Function Attrs: mustprogress uwtable
define void @_ZN32pxrInternal_v0_24__pxrReserved__7TfTokenC2ERKNSt7__cxx1112basic_stringIcSt11char_traitsIcESaIcEEE(ptr noundef nonnull align 8 dereferenceable(8) %0, ptr noundef nonnull align 8 dereferenceable(32) %1) unnamed_addr #0 align 2 {
  %3 = alloca ptr, align 8
  %4 = alloca ptr, align 8
  store ptr %0, ptr %3, align 8
  store ptr %1, ptr %4, align 8
  %5 = load ptr, ptr %3, align 8
  %6 = getelementptr inbounds nuw %"class.pxrInternal_v0_24__pxrReserved__::TfToken", ptr %5, i32 0, i32 0
  %7 = call noundef nonnull align 64 dereferenceable(8192) ptr @_ZN32pxrInternal_v0_24__pxrReserved__16Tf_TokenRegistry12_GetInstanceEv()
  %8 = load ptr, ptr %4, align 8
  %9 = call ptr @_ZN32pxrInternal_v0_24__pxrReserved__16Tf_TokenRegistry10_GetPtrStrERKNSt7__cxx1112basic_stringIcSt11char_traitsIcESaIcEEEb(ptr noundef nonnull align 64 dereferenceable(8192) %7, ptr noundef nonnull align 8 dereferenceable(32) %8, i1 noundef zeroext false)
  %10 = getelementptr inbounds nuw %"class.pxrInternal_v0_24__pxrReserved__::TfPointerAndBits", ptr %6, i32 0, i32 0
  store ptr %9, ptr %10, align 8
  ret void
}