; Function Attrs: mustprogress uwtable
define void @_ZN32pxrInternal_v0_24__pxrReserved__7TfTokenC2ERKNSt7__cxx1112basic_stringIcSt11char_traitsIcESaIcEEE(ptr noundef nonnull writeonly align 8 captures(none) dereferenceable(8) initializes((0, 8)) %0, ptr noundef nonnull align 8 dereferenceable(32) %1) unnamed_addr #0 align 2 {
  %3 = load atomic i64, ptr @_ZN32pxrInternal_v0_24__pxrReserved__11TfSingletonINS_16Tf_TokenRegistryEE9_instanceE seq_cst, align 8
  %.0.i.i.i = inttoptr i64 %3 to ptr
  %.not.i.i = icmp eq i64 %3, 0
  br i1 %.not.i.i, label %4, label %_ZN32pxrInternal_v0_24__pxrReserved__16Tf_TokenRegistry12_GetInstanceEv.exit

4:                                                ; preds = %2
  %5 = tail call noundef ptr @_ZN32pxrInternal_v0_24__pxrReserved__11TfSingletonINS_16Tf_TokenRegistryEE15_CreateInstanceERSt6atomicIPS1_E(ptr noundef nonnull align 8 dereferenceable(8) @_ZN32pxrInternal_v0_24__pxrReserved__11TfSingletonINS_16Tf_TokenRegistryEE9_instanceE)
  br label %_ZN32pxrInternal_v0_24__pxrReserved__16Tf_TokenRegistry12_GetInstanceEv.exit

_ZN32pxrInternal_v0_24__pxrReserved__16Tf_TokenRegistry12_GetInstanceEv.exit: ; preds = %2, %4
  %.0.i.i = phi ptr [ %.0.i.i.i, %2 ], [ %5, %4 ]
  %6 = tail call ptr @_ZN32pxrInternal_v0_24__pxrReserved__16Tf_TokenRegistry11_GetPtrImplIRKNSt7__cxx1112basic_stringIcSt11char_traitsIcESaIcEEEEENS_16TfPointerAndBitsIKNS_7TfToken4_RepEEET_b(ptr noundef nonnull align 64 dereferenceable(8192) %.0.i.i, ptr noundef nonnull align 8 dereferenceable(32) %1, i1 noundef zeroext false)
  store ptr %6, ptr %0, align 8
  ret void
}